; Function Attrs: mustprogress nofree nounwind willreturn memory(read) uwtable
define dso_local noundef zeroext i1 @_ZN7VString12isIdentifierERKNSt7__cxx1112basic_stringIcSt11char_traitsIcESaIcEEE(ptr noundef nonnull readonly align 8 captures(none) dereferenceable(32) %0) local_unnamed_addr #9 align 2 {
  %2 = load ptr, ptr %0, align 8, !tbaa !19
  %3 = getelementptr inbounds nuw i8, ptr %0, i64 8
  %4 = load i64, ptr %3, align 8, !tbaa !24
  %5 = getelementptr inbounds nuw i8, ptr %2, i64 %4
  %.not11 = icmp samesign eq i64 %4, 0
  br i1 %.not11, label %._crit_edge, label %.lr.ph

.lr.ph:                                           ; preds = %1, %.lr.ph
  %.sroa.08.012 = phi ptr [ %12, %.lr.ph ], [ %2, %1 ]
  %6 = load i8, ptr %.sroa.08.012, align 1, !tbaa !13
  %7 = sext i8 %6 to i32
  %8 = tail call i32 @isalnum(i32 noundef %7) #34
  %9 = icmp ne i32 %8, 0
  %10 = icmp eq i8 %6, 95
  %11 = or i1 %10, %9
  %12 = getelementptr inbounds nuw i8, ptr %.sroa.08.012, i64 1
  %.not = icmp ne ptr %12, %5
  %or.cond.not = select i1 %11, i1 %.not, i1 false
  br i1 %or.cond.not, label %.lr.ph, label %._crit_edge

._crit_edge:                                      ; preds = %.lr.ph, %1
  %.not.lcssa = phi i1 [ true, %1 ], [ %11, %.lr.ph ]
  ret i1 %.not.lcssa
}